; Function Attrs: nounwind uwtable
define ptr @l_Array_forIn_x27Unsafe_loop___at_Lean_Meta_mkSimpCongrTheorem___spec__8___at_Lean_Meta_mkSimpCongrTheorem___spec__9___boxed(ptr noundef %0, ptr noundef %1, ptr noundef %2, ptr noundef %3, ptr noundef %4, ptr noundef %5, ptr noundef %6, ptr noundef %7, ptr noundef %8, ptr noundef %9, ptr noundef %10, ptr noundef %11) local_unnamed_addr #1 {
  %13 = getelementptr i8, ptr %2, i64 8
  %.val33 = load i64, ptr %13, align 8, !tbaa !12
  %14 = ptrtoint ptr %2 to i64
  %15 = and i64 %14, 1
  %.not = icmp eq i64 %15, 0
  br i1 %.not, label %16, label %lean_dec.exit23

16:                                               ; preds = %12
  %17 = load i32, ptr %2, align 4, !tbaa !4
  %18 = icmp sgt i32 %17, 1
  br i1 %18, label %19, label %21, !prof !11

19:                                               ; preds = %16
  %20 = add nsw i32 %17, -1
  store i32 %20, ptr %2, align 4, !tbaa !4
  br label %lean_dec.exit23

21:                                               ; preds = %16
  %.not.i = icmp eq i32 %17, 0
  br i1 %.not.i, label %lean_dec.exit23, label %22

22:                                               ; preds = %21
  tail call void @lean_dec_ref_cold(ptr noundef nonnull %2) #5
  br label %lean_dec.exit23

lean_dec.exit23:                                  ; preds = %22, %21, %19, %12
  %23 = getelementptr i8, ptr %4, i64 8
  %.val32 = load i64, ptr %23, align 8, !tbaa !12
  %24 = ptrtoint ptr %4 to i64
  %25 = and i64 %24, 1
  %.not34 = icmp eq i64 %25, 0
  br i1 %.not34, label %26, label %lean_dec.exit22

26:                                               ; preds = %lean_dec.exit23
  %27 = load i32, ptr %4, align 4, !tbaa !4
  %28 = icmp sgt i32 %27, 1
  br i1 %28, label %29, label %31, !prof !11

29:                                               ; preds = %26
  %30 = add nsw i32 %27, -1
  store i32 %30, ptr %4, align 4, !tbaa !4
  br label %lean_dec.exit22

31:                                               ; preds = %26
  %.not.i24 = icmp eq i32 %27, 0
  br i1 %.not.i24, label %lean_dec.exit22, label %32

32:                                               ; preds = %31
  tail call void @lean_dec_ref_cold(ptr noundef nonnull %4) #5
  br label %lean_dec.exit22

lean_dec.exit22:                                  ; preds = %32, %31, %29, %lean_dec.exit23
  %33 = getelementptr i8, ptr %5, i64 8
  %.val = load i64, ptr %33, align 8, !tbaa !12
  %34 = ptrtoint ptr %5 to i64
  %35 = and i64 %34, 1
  %.not35 = icmp eq i64 %35, 0
  br i1 %.not35, label %36, label %lean_dec.exit21

36:                                               ; preds = %lean_dec.exit22
  %37 = load i32, ptr %5, align 4, !tbaa !4
  %38 = icmp sgt i32 %37, 1
  br i1 %38, label %39, label %41, !prof !11

39:                                               ; preds = %36
  %40 = add nsw i32 %37, -1
  store i32 %40, ptr %5, align 4, !tbaa !4
  br label %lean_dec.exit21

41:                                               ; preds = %36
  %.not.i26 = icmp eq i32 %37, 0
  br i1 %.not.i26, label %lean_dec.exit21, label %42

42:                                               ; preds = %41
  tail call void @lean_dec_ref_cold(ptr noundef nonnull %5) #5
  br label %lean_dec.exit21

lean_dec.exit21:                                  ; preds = %42, %41, %39, %lean_dec.exit22
  %43 = tail call ptr @l_Array_forIn_x27Unsafe_loop___at_Lean_Meta_mkSimpCongrTheorem___spec__8___at_Lean_Meta_mkSimpCongrTheorem___spec__9(ptr poison, ptr noundef %1, i64 noundef %.val33, ptr noundef %3, i64 noundef %.val32, i64 noundef %.val, ptr noundef %6, ptr noundef %7, ptr noundef %8, ptr noundef %9, ptr noundef %10, ptr noundef %11)
  %44 = ptrtoint ptr %3 to i64
  %45 = and i64 %44, 1
  %.not36 = icmp eq i64 %45, 0
  br i1 %.not36, label %46, label %lean_dec.exit20

46:                                               ; preds = %lean_dec.exit21
  %47 = load i32, ptr %3, align 4, !tbaa !4
  %48 = icmp sgt i32 %47, 1
  br i1 %48, label %49, label %51, !prof !11

49:                                               ; preds = %46
  %50 = add nsw i32 %47, -1
  store i32 %50, ptr %3, align 4, !tbaa !4
  br label %lean_dec.exit20

51:                                               ; preds = %46
  %.not.i28 = icmp eq i32 %47, 0
  br i1 %.not.i28, label %lean_dec.exit20, label %52

52:                                               ; preds = %51
  tail call void @lean_dec_ref_cold(ptr noundef nonnull %3) #5
  br label %lean_dec.exit20

lean_dec.exit20:                                  ; preds = %52, %51, %49, %lean_dec.exit21
  %53 = ptrtoint ptr %0 to i64
  %54 = and i64 %53, 1
  %.not37 = icmp eq i64 %54, 0
  br i1 %.not37, label %55, label %lean_dec.exit

55:                                               ; preds = %lean_dec.exit20
  %56 = load i32, ptr %0, align 4, !tbaa !4
  %57 = icmp sgt i32 %56, 1
  br i1 %57, label %58, label %60, !prof !11

58:                                               ; preds = %55
  %59 = add nsw i32 %56, -1
  store i32 %59, ptr %0, align 4, !tbaa !4
  br label %lean_dec.exit

60:                                               ; preds = %55
  %.not.i30 = icmp eq i32 %56, 0
  br i1 %.not.i30, label %lean_dec.exit, label %61

61:                                               ; preds = %60
  tail call void @lean_dec_ref_cold(ptr noundef nonnull %0) #5
  br label %lean_dec.exit

lean_dec.exit:                                    ; preds = %61, %60, %58, %lean_dec.exit20
  ret ptr %43
}